target datalayout = "e-m:e-p270:32:32-p271:32:32-p272:64:64-i64:64-i128:128-f80:128-n8:16:32:64-S128"
target triple = "x86_64-pc-linux-gnu"

%struct.Agobj_s = type { %struct.Agtag_s, ptr }
%struct.Agtag_s = type { i32, i64 }
%struct.Agraphinfo_t = type { %struct.Agrec_s, ptr, ptr, %struct.boxf, [4 x %struct.pointf_s], i8, i8, i8, i8, i32, double, double, i16, ptr, ptr, ptr, ptr, i32, ptr, ptr, ptr, ptr, i16, i16, i32, ptr, ptr, ptr, ptr, ptr, i32, ptr, ptr, %struct.nlist_t, ptr, ptr, i32, i32, i8, i8, i32, i32, i32, ptr, ptr, ptr, ptr, i8, i8, i8, i8, i8 }
%struct.Agrec_s = type { ptr, ptr }
%struct.boxf = type { %struct.pointf_s, %struct.pointf_s }
%struct.pointf_s = type { double, double }
%struct.nlist_t = type { ptr, i64 }
%struct.rank_t = type { i32, ptr, i32, ptr, double, double, double, double, i8, i8, i64, ptr }
%struct.Agnodeinfo_t = type { %struct.Agrec_s, ptr, ptr, %struct.pointf_s, double, double, %struct.boxf, double, double, double, double, double, ptr, ptr, ptr, i8, i8, i8, i8, i32, i32, i32, ptr, double, i8, i8, ptr, ptr, i8, i64, i8, i8, i8, ptr, ptr, %struct.elist, %struct.elist, %struct.elist, %struct.elist, %struct.elist, ptr, i32, ptr, i32, i32, double, %struct.elist, %struct.elist, %struct.elist, %struct.elist, ptr, i32, i32, i32, [1 x double] }
%struct.elist = type { ptr, i64 }
%struct.adjmatrix_t = type { i64, i64, ptr }

@stderr = external global ptr, align 8
@.str.10 = private unnamed_addr constant [58 x i8] c"integer overflow when trying to allocate %zu * %zu bytes\0A\00", align 1
@.str.11 = private unnamed_addr constant [49 x i8] c"out of memory when trying to allocate %zu bytes\0A\00", align 1

; Function Attrs: inlinehint nounwind uwtable
define internal ptr @gv_calloc(i64 noundef %0, i64 noundef %1) #4 {
  %3 = alloca i64, align 8
  %4 = alloca i64, align 8
  %5 = alloca ptr, align 8
  store i64 %0, ptr %3, align 8, !tbaa !77
  store i64 %1, ptr %4, align 8, !tbaa !77
  %6 = load i64, ptr %3, align 8, !tbaa !77
  %7 = icmp ugt i64 %6, 0
  br i1 %7, label %8, label %18

8:                                                ; preds = %2
  %9 = load i64, ptr %3, align 8, !tbaa !77
  %10 = udiv i64 -1, %9
  %11 = load i64, ptr %4, align 8, !tbaa !77
  %12 = icmp ult i64 %10, %11
  br i1 %12, label %13, label %18

13:                                               ; preds = %8
  %14 = load ptr, ptr @stderr, align 8, !tbaa !89
  %15 = load i64, ptr %3, align 8, !tbaa !77
  %16 = load i64, ptr %4, align 8, !tbaa !77
  %17 = call i32 (ptr, ptr, ...) @fprintf(ptr noundef %14, ptr noundef @.str.10, i64 noundef %15, i64 noundef %16) #15
  call void @graphviz_exit(i32 noundef 1) #16
  unreachable

18:                                               ; preds = %8, %2
  call void @llvm.lifetime.start.p0(i64 8, ptr %5) #15
  %19 = load i64, ptr %3, align 8, !tbaa !77
  %20 = load i64, ptr %4, align 8, !tbaa !77
  %21 = call noalias ptr @calloc(i64 noundef %19, i64 noundef %20) #17
  store ptr %21, ptr %5, align 8, !tbaa !63
  %22 = load i64, ptr %3, align 8, !tbaa !77
  %23 = icmp ugt i64 %22, 0
  br i1 %23, label %24, label %36

24:                                               ; preds = %18
  %25 = load i64, ptr %4, align 8, !tbaa !77
  %26 = icmp ugt i64 %25, 0
  br i1 %26, label %27, label %36

27:                                               ; preds = %24
  %28 = load ptr, ptr %5, align 8, !tbaa !63
  %29 = icmp eq ptr %28, null
  br i1 %29, label %30, label %36

30:                                               ; preds = %27
  %31 = load ptr, ptr @stderr, align 8, !tbaa !89
  %32 = load i64, ptr %3, align 8, !tbaa !77
  %33 = load i64, ptr %4, align 8, !tbaa !77
  %34 = mul i64 %32, %33
  %35 = call i32 (ptr, ptr, ...) @fprintf(ptr noundef %31, ptr noundef @.str.11, i64 noundef %34) #15
  call void @graphviz_exit(i32 noundef 1) #16
  unreachable

36:                                               ; preds = %27, %24, %18
  %37 = load ptr, ptr %5, align 8, !tbaa !63
  call void @llvm.lifetime.end.p0(i64 8, ptr %5) #15
  ret ptr %37
}

; Function Attrs: inlinehint nounwind uwtable
define internal ptr @gv_alloc(i64 noundef %0) #4 {
  %2 = alloca i64, align 8
  store i64 %0, ptr %2, align 8, !tbaa !77
  %3 = load i64, ptr %2, align 8, !tbaa !77
  %4 = call ptr @gv_calloc(i64 noundef 1, i64 noundef %3)
  ret ptr %4
}

; Function Attrs: nounwind uwtable
define internal ptr @new_matrix(i64 noundef %0, i64 noundef %1) #0 {
  %3 = alloca i64, align 8
  %4 = alloca i64, align 8
  %5 = alloca ptr, align 8
  store i64 %0, ptr %3, align 8, !tbaa !77
  store i64 %1, ptr %4, align 8, !tbaa !77
  call void @llvm.lifetime.start.p0(i64 8, ptr %5) #15
  %6 = call ptr @gv_alloc(i64 noundef 24)
  store ptr %6, ptr %5, align 8, !tbaa !196
  %7 = load i64, ptr %3, align 8, !tbaa !77
  %8 = load ptr, ptr %5, align 8, !tbaa !196
  %9 = getelementptr inbounds nuw %struct.adjmatrix_t, ptr %8, i32 0, i32 0
  store i64 %7, ptr %9, align 8, !tbaa !197
  %10 = load i64, ptr %4, align 8, !tbaa !77
  %11 = load ptr, ptr %5, align 8, !tbaa !196
  %12 = getelementptr inbounds nuw %struct.adjmatrix_t, ptr %11, i32 0, i32 1
  store i64 %10, ptr %12, align 8, !tbaa !199
  %13 = load i64, ptr %3, align 8, !tbaa !77
  %14 = load i64, ptr %4, align 8, !tbaa !77
  %15 = mul i64 %13, %14
  %16 = call ptr @gv_calloc(i64 noundef %15, i64 noundef 1)
  %17 = load ptr, ptr %5, align 8, !tbaa !196
  %18 = getelementptr inbounds nuw %struct.adjmatrix_t, ptr %17, i32 0, i32 2
  store ptr %16, ptr %18, align 8, !tbaa !200
  %19 = load ptr, ptr %5, align 8, !tbaa !196
  call void @llvm.lifetime.end.p0(i64 8, ptr %5) #15
  ret ptr %19
}

; Function Attrs: nounwind uwtable
define internal void @flat_breakcycles(ptr noundef %0) #0 {
  %2 = alloca ptr, align 8
  %3 = alloca i32, align 4
  %4 = alloca i32, align 4
  %5 = alloca i32, align 4
  %6 = alloca ptr, align 8
  store ptr %0, ptr %2, align 8, !tbaa !3
  call void @llvm.lifetime.start.p0(i64 4, ptr %3) #15
  call void @llvm.lifetime.start.p0(i64 4, ptr %4) #15
  call void @llvm.lifetime.start.p0(i64 4, ptr %5) #15
  call void @llvm.lifetime.start.p0(i64 8, ptr %6) #15
  %7 = load ptr, ptr %2, align 8, !tbaa !3
  %8 = getelementptr inbounds nuw %struct.Agobj_s, ptr %7, i32 0, i32 1
  %9 = load ptr, ptr %8, align 8, !tbaa !8
  %10 = getelementptr inbounds nuw %struct.Agraphinfo_t, ptr %9, i32 0, i32 36
  %11 = load i32, ptr %10, align 8, !tbaa !14
  store i32 %11, ptr %4, align 4, !tbaa !33
  br label %12

12:                                               ; preds = %156, %1
  %13 = load i32, ptr %4, align 4, !tbaa !33
  %14 = load ptr, ptr %2, align 8, !tbaa !3
  %15 = getelementptr inbounds nuw %struct.Agobj_s, ptr %14, i32 0, i32 1
  %16 = load ptr, ptr %15, align 8, !tbaa !8
  %17 = getelementptr inbounds nuw %struct.Agraphinfo_t, ptr %16, i32 0, i32 37
  %18 = load i32, ptr %17, align 4, !tbaa !34
  %19 = icmp sle i32 %13, %18
  br i1 %19, label %20, label %159

20:                                               ; preds = %12
  store i32 0, ptr %5, align 4, !tbaa !33
  store i32 0, ptr %3, align 4, !tbaa !33
  br label %21

21:                                               ; preds = %106, %20
  %22 = load i32, ptr %3, align 4, !tbaa !33
  %23 = load ptr, ptr %2, align 8, !tbaa !3
  %24 = getelementptr inbounds nuw %struct.Agobj_s, ptr %23, i32 0, i32 1
  %25 = load ptr, ptr %24, align 8, !tbaa !8
  %26 = getelementptr inbounds nuw %struct.Agraphinfo_t, ptr %25, i32 0, i32 28
  %27 = load ptr, ptr %26, align 8, !tbaa !35
  %28 = load i32, ptr %4, align 4, !tbaa !33
  %29 = sext i32 %28 to i64
  %30 = getelementptr inbounds %struct.rank_t, ptr %27, i64 %29
  %31 = getelementptr inbounds nuw %struct.rank_t, ptr %30, i32 0, i32 0
  %32 = load i32, ptr %31, align 8, !tbaa !37
  %33 = icmp slt i32 %22, %32
  br i1 %33, label %34, label %109

34:                                               ; preds = %21
  %35 = load ptr, ptr %2, align 8, !tbaa !3
  %36 = getelementptr inbounds nuw %struct.Agobj_s, ptr %35, i32 0, i32 1
  %37 = load ptr, ptr %36, align 8, !tbaa !8
  %38 = getelementptr inbounds nuw %struct.Agraphinfo_t, ptr %37, i32 0, i32 28
  %39 = load ptr, ptr %38, align 8, !tbaa !35
  %40 = load i32, ptr %4, align 4, !tbaa !33
  %41 = sext i32 %40 to i64
  %42 = getelementptr inbounds %struct.rank_t, ptr %39, i64 %41
  %43 = getelementptr inbounds nuw %struct.rank_t, ptr %42, i32 0, i32 1
  %44 = load ptr, ptr %43, align 8, !tbaa !40
  %45 = load i32, ptr %3, align 4, !tbaa !33
  %46 = sext i32 %45 to i64
  %47 = getelementptr inbounds ptr, ptr %44, i64 %46
  %48 = load ptr, ptr %47, align 8, !tbaa !41
  store ptr %48, ptr %6, align 8, !tbaa !41
  %49 = load ptr, ptr %6, align 8, !tbaa !41
  %50 = getelementptr inbounds nuw %struct.Agobj_s, ptr %49, i32 0, i32 1
  %51 = load ptr, ptr %50, align 8, !tbaa !8
  %52 = getelementptr inbounds nuw %struct.Agnodeinfo_t, ptr %51, i32 0, i32 29
  store i64 0, ptr %52, align 8, !tbaa !124
  %53 = load ptr, ptr %6, align 8, !tbaa !41
  %54 = getelementptr inbounds nuw %struct.Agobj_s, ptr %53, i32 0, i32 1
  %55 = load ptr, ptr %54, align 8, !tbaa !8
  %56 = getelementptr inbounds nuw %struct.Agnodeinfo_t, ptr %55, i32 0, i32 30
  store i8 0, ptr %56, align 8, !tbaa !171
  %57 = load i32, ptr %3, align 4, !tbaa !33
  %58 = load ptr, ptr %6, align 8, !tbaa !41
  %59 = getelementptr inbounds nuw %struct.Agobj_s, ptr %58, i32 0, i32 1
  %60 = load ptr, ptr %59, align 8, !tbaa !8
  %61 = getelementptr inbounds nuw %struct.Agnodeinfo_t, ptr %60, i32 0, i32 51
  store i32 %57, ptr %61, align 8, !tbaa !172
  %62 = load ptr, ptr %6, align 8, !tbaa !41
  %63 = getelementptr inbounds nuw %struct.Agobj_s, ptr %62, i32 0, i32 1
  %64 = load ptr, ptr %63, align 8, !tbaa !8
  %65 = getelementptr inbounds nuw %struct.Agnodeinfo_t, ptr %64, i32 0, i32 37
  %66 = getelementptr inbounds nuw %struct.elist, ptr %65, i32 0, i32 1
  %67 = load i64, ptr %66, align 8, !tbaa !173
  %68 = icmp ugt i64 %67, 0
  br i1 %68, label %69, label %105

69:                                               ; preds = %34
  %70 = load i32, ptr %5, align 4, !tbaa !33
  %71 = icmp eq i32 %70, 0
  br i1 %71, label %72, label %105

72:                                               ; preds = %69
  %73 = load ptr, ptr %2, align 8, !tbaa !3
  %74 = getelementptr inbounds nuw %struct.Agobj_s, ptr %73, i32 0, i32 1
  %75 = load ptr, ptr %74, align 8, !tbaa !8
  %76 = getelementptr inbounds nuw %struct.Agraphinfo_t, ptr %75, i32 0, i32 28
  %77 = load ptr, ptr %76, align 8, !tbaa !35
  %78 = load i32, ptr %4, align 4, !tbaa !33
  %79 = sext i32 %78 to i64
  %80 = getelementptr inbounds %struct.rank_t, ptr %77, i64 %79
  %81 = getelementptr inbounds nuw %struct.rank_t, ptr %80, i32 0, i32 0
  %82 = load i32, ptr %81, align 8, !tbaa !37
  %83 = sext i32 %82 to i64
  %84 = load ptr, ptr %2, align 8, !tbaa !3
  %85 = getelementptr inbounds nuw %struct.Agobj_s, ptr %84, i32 0, i32 1
  %86 = load ptr, ptr %85, align 8, !tbaa !8
  %87 = getelementptr inbounds nuw %struct.Agraphinfo_t, ptr %86, i32 0, i32 28
  %88 = load ptr, ptr %87, align 8, !tbaa !35
  %89 = load i32, ptr %4, align 4, !tbaa !33
  %90 = sext i32 %89 to i64
  %91 = getelementptr inbounds %struct.rank_t, ptr %88, i64 %90
  %92 = getelementptr inbounds nuw %struct.rank_t, ptr %91, i32 0, i32 0
  %93 = load i32, ptr %92, align 8, !tbaa !37
  %94 = sext i32 %93 to i64
  %95 = call ptr @new_matrix(i64 noundef %83, i64 noundef %94)
  %96 = load ptr, ptr %2, align 8, !tbaa !3
  %97 = getelementptr inbounds nuw %struct.Agobj_s, ptr %96, i32 0, i32 1
  %98 = load ptr, ptr %97, align 8, !tbaa !8
  %99 = getelementptr inbounds nuw %struct.Agraphinfo_t, ptr %98, i32 0, i32 28
  %100 = load ptr, ptr %99, align 8, !tbaa !35
  %101 = load i32, ptr %4, align 4, !tbaa !33
  %102 = sext i32 %101 to i64
  %103 = getelementptr inbounds %struct.rank_t, ptr %100, i64 %102
  %104 = getelementptr inbounds nuw %struct.rank_t, ptr %103, i32 0, i32 11
  store ptr %95, ptr %104, align 8, !tbaa !111
  store i32 1, ptr %5, align 4, !tbaa !33
  br label %105

105:                                              ; preds = %72, %69, %34
  br label %106

106:                                              ; preds = %105
  %107 = load i32, ptr %3, align 4, !tbaa !33
  %108 = add nsw i32 %107, 1
  store i32 %108, ptr %3, align 4, !tbaa !33
  br label %21, !llvm.loop !174

109:                                              ; preds = %21
  %110 = load i32, ptr %5, align 4, !tbaa !33
  %111 = icmp ne i32 %110, 0
  br i1 %111, label %112, label %155

112:                                              ; preds = %109
  store i32 0, ptr %3, align 4, !tbaa !33
  br label %113

113:                                              ; preds = %151, %112
  %114 = load i32, ptr %3, align 4, !tbaa !33
  %115 = load ptr, ptr %2, align 8, !tbaa !3
  %116 = getelementptr inbounds nuw %struct.Agobj_s, ptr %115, i32 0, i32 1
  %117 = load ptr, ptr %116, align 8, !tbaa !8
  %118 = getelementptr inbounds nuw %struct.Agraphinfo_t, ptr %117, i32 0, i32 28
  %119 = load ptr, ptr %118, align 8, !tbaa !35
  %120 = load i32, ptr %4, align 4, !tbaa !33
  %121 = sext i32 %120 to i64
  %122 = getelementptr inbounds %struct.rank_t, ptr %119, i64 %121
  %123 = getelementptr inbounds nuw %struct.rank_t, ptr %122, i32 0, i32 0
  %124 = load i32, ptr %123, align 8, !tbaa !37
  %125 = icmp slt i32 %114, %124
  br i1 %125, label %126, label %154

126:                                              ; preds = %113
  %127 = load ptr, ptr %2, align 8, !tbaa !3
  %128 = getelementptr inbounds nuw %struct.Agobj_s, ptr %127, i32 0, i32 1
  %129 = load ptr, ptr %128, align 8, !tbaa !8
  %130 = getelementptr inbounds nuw %struct.Agraphinfo_t, ptr %129, i32 0, i32 28
  %131 = load ptr, ptr %130, align 8, !tbaa !35
  %132 = load i32, ptr %4, align 4, !tbaa !33
  %133 = sext i32 %132 to i64
  %134 = getelementptr inbounds %struct.rank_t, ptr %131, i64 %133
  %135 = getelementptr inbounds nuw %struct.rank_t, ptr %134, i32 0, i32 1
  %136 = load ptr, ptr %135, align 8, !tbaa !40
  %137 = load i32, ptr %3, align 4, !tbaa !33
  %138 = sext i32 %137 to i64
  %139 = getelementptr inbounds ptr, ptr %136, i64 %138
  %140 = load ptr, ptr %139, align 8, !tbaa !41
  store ptr %140, ptr %6, align 8, !tbaa !41
  %141 = load ptr, ptr %6, align 8, !tbaa !41
  %142 = getelementptr inbounds nuw %struct.Agobj_s, ptr %141, i32 0, i32 1
  %143 = load ptr, ptr %142, align 8, !tbaa !8
  %144 = getelementptr inbounds nuw %struct.Agnodeinfo_t, ptr %143, i32 0, i32 29
  %145 = load i64, ptr %144, align 8, !tbaa !124
  %146 = icmp ne i64 %145, 0
  br i1 %146, label %150, label %147

147:                                              ; preds = %126
  %148 = load ptr, ptr %2, align 8, !tbaa !3
  %149 = load ptr, ptr %6, align 8, !tbaa !41
  call void @flat_search(ptr noundef %148, ptr noundef %149)
  br label %150

150:                                              ; preds = %147, %126
  br label %151

151:                                              ; preds = %150
  %152 = load i32, ptr %3, align 4, !tbaa !33
  %153 = add nsw i32 %152, 1
  store i32 %153, ptr %3, align 4, !tbaa !33
  br label %113, !llvm.loop !175

154:                                              ; preds = %113
  br label %155

155:                                              ; preds = %154, %109
  br label %156

156:                                              ; preds = %155
  %157 = load i32, ptr %4, align 4, !tbaa !33
  %158 = add nsw i32 %157, 1
  store i32 %158, ptr %4, align 4, !tbaa !33
  br label %12, !llvm.loop !176

159:                                              ; preds = %12
  call void @llvm.lifetime.end.p0(i64 8, ptr %6) #15
  call void @llvm.lifetime.end.p0(i64 4, ptr %5) #15
  call void @llvm.lifetime.end.p0(i64 4, ptr %4) #15
  call void @llvm.lifetime.end.p0(i64 4, ptr %3) #15
  ret void
}