; Function Attrs: nounwind uwtable
define internal fastcc void @flat_breakcycles(ptr noundef %0) unnamed_addr #0 {
  %2 = getelementptr inbounds nuw i8, ptr %0, i64 16
  %3 = load ptr, ptr %2, align 8, !tbaa !3
  %4 = getelementptr inbounds nuw i8, ptr %3, i64 336
  %5 = load i32, ptr %4, align 8, !tbaa !12
  %6 = getelementptr inbounds nuw i8, ptr %3, i64 340
  %7 = load i32, ptr %6, align 4, !tbaa !32
  %.not50 = icmp sgt i32 %5, %7
  br i1 %.not50, label %._crit_edge52, label %.preheader39.preheader

.preheader39.preheader:                           ; preds = %1
  %8 = sext i32 %5 to i64
  br label %.preheader39

.preheader39:                                     ; preds = %.preheader39.preheader, %.loopexit
  %9 = phi ptr [ %3, %.preheader39.preheader ], [ %68, %.loopexit ]
  %indvars.iv58 = phi i64 [ %8, %.preheader39.preheader ], [ %indvars.iv.next59, %.loopexit ]
  %10 = getelementptr inbounds nuw i8, ptr %9, i64 264
  %11 = load ptr, ptr %10, align 8, !tbaa !33
  %12 = getelementptr inbounds %struct.rank_t, ptr %11, i64 %indvars.iv58
  %13 = load i32, ptr %12, align 8, !tbaa !34
  %14 = icmp sgt i32 %13, 0
  br i1 %14, label %.lr.ph, label %.loopexit

.lr.ph:                                           ; preds = %.preheader39
  %15 = getelementptr inbounds nuw i8, ptr %12, i64 8
  %16 = load ptr, ptr %15, align 8, !tbaa !37
  %17 = zext nneg i32 %13 to i64
  %18 = mul nuw nsw i64 %17, %17
  %19 = getelementptr inbounds %struct.rank_t, ptr %11, i64 %indvars.iv58, i32 11
  br label %.outer

.outer:                                           ; preds = %.thread, %.lr.ph
  %indvars.iv.ph = phi i64 [ %indvars.iv.next63, %.thread ], [ 0, %.lr.ph ]
  %20 = phi i1 [ false, %.thread ], [ true, %.lr.ph ]
  br label %21

21:                                               ; preds = %.outer, %45
  %indvars.iv = phi i64 [ %indvars.iv.next, %45 ], [ %indvars.iv.ph, %.outer ]
  %22 = getelementptr inbounds nuw ptr, ptr %16, i64 %indvars.iv
  %23 = load ptr, ptr %22, align 8, !tbaa !38
  %24 = getelementptr inbounds nuw i8, ptr %23, i64 16
  %25 = load ptr, ptr %24, align 8, !tbaa !3
  %26 = getelementptr inbounds nuw i8, ptr %25, i64 224
  store i64 0, ptr %26, align 8, !tbaa !159
  %27 = getelementptr inbounds nuw i8, ptr %25, i64 232
  store i8 0, ptr %27, align 8, !tbaa !210
  %28 = getelementptr inbounds nuw i8, ptr %25, i64 448
  %29 = trunc nuw nsw i64 %indvars.iv to i32
  store i32 %29, ptr %28, align 8, !tbaa !140
  %30 = getelementptr inbounds nuw i8, ptr %25, i64 296
  %31 = load i64, ptr %30, align 8, !tbaa !131
  %32 = icmp ne i64 %31, 0
  %or.cond = and i1 %32, %20
  br i1 %or.cond, label %33, label %45

33:                                               ; preds = %21
  %34 = tail call noalias dereferenceable_or_null(24) ptr @calloc(i64 noundef 1, i64 noundef 24) #27
  %35 = icmp eq ptr %34, null
  br i1 %35, label %36, label %gv_alloc.exit.i

36:                                               ; preds = %33
  %37 = load ptr, ptr @stderr, align 8, !tbaa !47
  %38 = tail call i32 (ptr, ptr, ...) @fprintf(ptr noundef %37, ptr noundef nonnull @.str.11, i64 noundef 24) #25
  tail call fastcc void @graphviz_exit() #26
  unreachable

gv_alloc.exit.i:                                  ; preds = %33
  store i64 %17, ptr %34, align 8, !tbaa !211
  %39 = getelementptr inbounds nuw i8, ptr %34, i64 8
  store i64 %17, ptr %39, align 8, !tbaa !141
  %40 = tail call noalias ptr @calloc(i64 noundef %18, i64 noundef 1) #27
  %41 = icmp eq ptr %40, null
  br i1 %41, label %42, label %.thread

42:                                               ; preds = %gv_alloc.exit.i
  %43 = load ptr, ptr @stderr, align 8, !tbaa !47
  %44 = tail call i32 (ptr, ptr, ...) @fprintf(ptr noundef %43, ptr noundef nonnull @.str.11, i64 noundef %18) #25
  tail call fastcc void @graphviz_exit() #26
  unreachable

45:                                               ; preds = %21
  %indvars.iv.next = add nuw nsw i64 %indvars.iv, 1
  %exitcond.not = icmp eq i64 %indvars.iv.next, %17
  br i1 %exitcond.not, label %._crit_edge, label %21, !llvm.loop !212

.thread:                                          ; preds = %gv_alloc.exit.i
  %46 = getelementptr inbounds nuw i8, ptr %34, i64 16
  store ptr %40, ptr %46, align 8, !tbaa !108
  store ptr %34, ptr %19, align 8, !tbaa !107
  %indvars.iv.next63 = add nuw nsw i64 %indvars.iv, 1
  %exitcond.not64 = icmp eq i64 %indvars.iv.next63, %17
  br i1 %exitcond.not64, label %.lr.ph49.preheader, label %.outer, !llvm.loop !212

._crit_edge:                                      ; preds = %45
  br i1 %20, label %.loopexit, label %.lr.ph49.preheader

.lr.ph49.preheader:                               ; preds = %.thread, %._crit_edge
  br label %.lr.ph49

.lr.ph49:                                         ; preds = %.lr.ph49.preheader, %59
  %47 = phi ptr [ %60, %59 ], [ %9, %.lr.ph49.preheader ]
  %48 = phi ptr [ %61, %59 ], [ %9, %.lr.ph49.preheader ]
  %indvars.iv55 = phi i64 [ %indvars.iv.next56, %59 ], [ 0, %.lr.ph49.preheader ]
  %49 = phi ptr [ %63, %59 ], [ %11, %.lr.ph49.preheader ]
  %50 = getelementptr inbounds %struct.rank_t, ptr %49, i64 %indvars.iv58, i32 1
  %51 = load ptr, ptr %50, align 8, !tbaa !37
  %52 = getelementptr inbounds nuw ptr, ptr %51, i64 %indvars.iv55
  %53 = load ptr, ptr %52, align 8, !tbaa !38
  %54 = getelementptr inbounds nuw i8, ptr %53, i64 16
  %55 = load ptr, ptr %54, align 8, !tbaa !3
  %56 = getelementptr inbounds nuw i8, ptr %55, i64 224
  %57 = load i64, ptr %56, align 8, !tbaa !159
  %.not38 = icmp eq i64 %57, 0
  br i1 %.not38, label %58, label %59

58:                                               ; preds = %.lr.ph49
  tail call fastcc void @flat_search(ptr noundef nonnull %0, ptr noundef nonnull %53)
  %.pre = load ptr, ptr %2, align 8, !tbaa !3
  br label %59

59:                                               ; preds = %.lr.ph49, %58
  %60 = phi ptr [ %47, %.lr.ph49 ], [ %.pre, %58 ]
  %61 = phi ptr [ %48, %.lr.ph49 ], [ %.pre, %58 ]
  %indvars.iv.next56 = add nuw nsw i64 %indvars.iv55, 1
  %62 = getelementptr inbounds nuw i8, ptr %61, i64 264
  %63 = load ptr, ptr %62, align 8, !tbaa !33
  %64 = getelementptr inbounds %struct.rank_t, ptr %63, i64 %indvars.iv58
  %65 = load i32, ptr %64, align 8, !tbaa !34
  %66 = sext i32 %65 to i64
  %67 = icmp slt i64 %indvars.iv.next56, %66
  br i1 %67, label %.lr.ph49, label %.loopexit, !llvm.loop !213

.loopexit:                                        ; preds = %59, %._crit_edge, %.preheader39
  %68 = phi ptr [ %9, %._crit_edge ], [ %9, %.preheader39 ], [ %60, %59 ]
  %indvars.iv.next59 = add nsw i64 %indvars.iv58, 1
  %69 = getelementptr inbounds nuw i8, ptr %68, i64 340
  %70 = load i32, ptr %69, align 4, !tbaa !32
  %71 = sext i32 %70 to i64
  %.not.not = icmp slt i64 %indvars.iv58, %71
  br i1 %.not.not, label %.preheader39, label %._crit_edge52, !llvm.loop !214

._crit_edge52:                                    ; preds = %.loopexit, %1
  ret void
}